; ModuleID = '57/3148.c'
source_filename = "57/3148.c"
target datalayout = "e-m:e-p270:32:32-p271:32:32-p272:64:64-i64:64-f80:128-n8:16:32:64-S128"
target triple = "x86_64-pc-linux-gnu"

@.str = private unnamed_addr constant [3 x i8] c"%d\00", align 1
@.str.1 = private unnamed_addr constant [3 x i8] c"%s\00", align 1

; Function Attrs: noinline nounwind uwtable
define dso_local i32 @main() #0 {
  %1 = alloca i32, align 4
  %2 = alloca i32, align 4
  %3 = alloca i32, align 4
  %4 = alloca i32, align 4
  %5 = alloca i32, align 4
  %6 = alloca i8*, align 8
  %7 = alloca i64, align 8
  store i32 0, i32* %1, align 4
  %8 = call i32 (i8*, ...) @__isoc99_scanf(i8* getelementptr inbounds ([3 x i8], [3 x i8]* @.str, i64 0, i64 0), i32* %2)
  %9 = load i32, i32* %2, align 4
  %10 = zext i32 %9 to i64
  %11 = call i8* @llvm.stacksave()
  store i8* %11, i8** %6, align 8
  %12 = alloca [32 x i8], i64 %10, align 16
  store i64 %10, i64* %7, align 8
  store i32 0, i32* %3, align 4
  br label %13

13:                                               ; preds = %23, %0
  %14 = load i32, i32* %3, align 4
  %15 = load i32, i32* %2, align 4
  %16 = icmp slt i32 %14, %15
  br i1 %16, label %17, label %26

17:                                               ; preds = %13
  %18 = load i32, i32* %3, align 4
  %19 = sext i32 %18 to i64
  %20 = getelementptr inbounds [32 x i8], [32 x i8]* %12, i64 %19
  %21 = getelementptr inbounds [32 x i8], [32 x i8]* %20, i64 0, i64 0
  %22 = call i32 (i8*, ...) @__isoc99_scanf(i8* getelementptr inbounds ([3 x i8], [3 x i8]* @.str.1, i64 0, i64 0), i8* %21)
  br label %23

23:                                               ; preds = %17
  %24 = load i32, i32* %3, align 4
  %25 = add nsw i32 %24, 1
  store i32 %25, i32* %3, align 4
  br label %13

26:                                               ; preds = %13
  store i32 0, i32* %3, align 4
  br label %27

27:                                               ; preds = %172, %26
  %28 = load i32, i32* %3, align 4
  %29 = load i32, i32* %2, align 4
  %30 = icmp slt i32 %28, %29
  br i1 %30, label %31, label %175

31:                                               ; preds = %27
  %32 = load i32, i32* %3, align 4
  %33 = sext i32 %32 to i64
  %34 = getelementptr inbounds [32 x i8], [32 x i8]* %12, i64 %33
  %35 = getelementptr inbounds [32 x i8], [32 x i8]* %34, i64 0, i64 0
  %36 = call i64 @strlen(i8* %35) #4
  %37 = trunc i64 %36 to i32
  store i32 %37, i32* %5, align 4
  %38 = load i32, i32* %3, align 4
  %39 = sext i32 %38 to i64
  %40 = getelementptr inbounds [32 x i8], [32 x i8]* %12, i64 %39
  %41 = load i32, i32* %5, align 4
  %42 = sub nsw i32 %41, 1
  %43 = sext i32 %42 to i64
  %44 = getelementptr inbounds [32 x i8], [32 x i8]* %40, i64 0, i64 %43
  %45 = load i8, i8* %44, align 1
  %46 = sext i8 %45 to i32
  %47 = icmp eq i32 %46, 114
  br i1 %47, label %48, label %74

48:                                               ; preds = %31
  %49 = load i32, i32* %3, align 4
  %50 = sext i32 %49 to i64
  %51 = getelementptr inbounds [32 x i8], [32 x i8]* %12, i64 %50
  %52 = load i32, i32* %5, align 4
  %53 = sub nsw i32 %52, 2
  %54 = sext i32 %53 to i64
  %55 = getelementptr inbounds [32 x i8], [32 x i8]* %51, i64 0, i64 %54
  %56 = load i8, i8* %55, align 1
  %57 = sext i8 %56 to i32
  %58 = icmp eq i32 %57, 101
  br i1 %58, label %59, label %74

59:                                               ; preds = %48
  %60 = load i32, i32* %3, align 4
  %61 = sext i32 %60 to i64
  %62 = getelementptr inbounds [32 x i8], [32 x i8]* %12, i64 %61
  %63 = load i32, i32* %5, align 4
  %64 = sub nsw i32 %63, 1
  %65 = sext i32 %64 to i64
  %66 = getelementptr inbounds [32 x i8], [32 x i8]* %62, i64 0, i64 %65
  store i8 0, i8* %66, align 1
  %67 = load i32, i32* %3, align 4
  %68 = sext i32 %67 to i64
  %69 = getelementptr inbounds [32 x i8], [32 x i8]* %12, i64 %68
  %70 = load i32, i32* %5, align 4
  %71 = sub nsw i32 %70, 2
  %72 = sext i32 %71 to i64
  %73 = getelementptr inbounds [32 x i8], [32 x i8]* %69, i64 0, i64 %72
  store i8 0, i8* %73, align 1
  br label %74

74:                                               ; preds = %59, %48, %31
  %75 = load i32, i32* %3, align 4
  %76 = sext i32 %75 to i64
  %77 = getelementptr inbounds [32 x i8], [32 x i8]* %12, i64 %76
  %78 = load i32, i32* %5, align 4
  %79 = sub nsw i32 %78, 1
  %80 = sext i32 %79 to i64
  %81 = getelementptr inbounds [32 x i8], [32 x i8]* %77, i64 0, i64 %80
  %82 = load i8, i8* %81, align 1
  %83 = sext i8 %82 to i32
  %84 = icmp eq i32 %83, 121
  br i1 %84, label %85, label %111

85:                                               ; preds = %74
  %86 = load i32, i32* %3, align 4
  %87 = sext i32 %86 to i64
  %88 = getelementptr inbounds [32 x i8], [32 x i8]* %12, i64 %87
  %89 = load i32, i32* %5, align 4
  %90 = sub nsw i32 %89, 2
  %91 = sext i32 %90 to i64
  %92 = getelementptr inbounds [32 x i8], [32 x i8]* %88, i64 0, i64 %91
  %93 = load i8, i8* %92, align 1
  %94 = sext i8 %93 to i32
  %95 = icmp eq i32 %94, 108
  br i1 %95, label %96, label %111

96:                                               ; preds = %85
  %97 = load i32, i32* %3, align 4
  %98 = sext i32 %97 to i64
  %99 = getelementptr inbounds [32 x i8], [32 x i8]* %12, i64 %98
  %100 = load i32, i32* %5, align 4
  %101 = sub nsw i32 %100, 1
  %102 = sext i32 %101 to i64
  %103 = getelementptr inbounds [32 x i8], [32 x i8]* %99, i64 0, i64 %102
  store i8 0, i8* %103, align 1
  %104 = load i32, i32* %3, align 4
  %105 = sext i32 %104 to i64
  %106 = getelementptr inbounds [32 x i8], [32 x i8]* %12, i64 %105
  %107 = load i32, i32* %5, align 4
  %108 = sub nsw i32 %107, 2
  %109 = sext i32 %108 to i64
  %110 = getelementptr inbounds [32 x i8], [32 x i8]* %106, i64 0, i64 %109
  store i8 0, i8* %110, align 1
  br label %111

111:                                              ; preds = %96, %85, %74
  %112 = load i32, i32* %3, align 4
  %113 = sext i32 %112 to i64
  %114 = getelementptr inbounds [32 x i8], [32 x i8]* %12, i64 %113
  %115 = load i32, i32* %5, align 4
  %116 = sub nsw i32 %115, 1
  %117 = sext i32 %116 to i64
  %118 = getelementptr inbounds [32 x i8], [32 x i8]* %114, i64 0, i64 %117
  %119 = load i8, i8* %118, align 1
  %120 = sext i8 %119 to i32
  %121 = icmp eq i32 %120, 103
  br i1 %121, label %122, label %166

122:                                              ; preds = %111
  %123 = load i32, i32* %3, align 4
  %124 = sext i32 %123 to i64
  %125 = getelementptr inbounds [32 x i8], [32 x i8]* %12, i64 %124
  %126 = load i32, i32* %5, align 4
  %127 = sub nsw i32 %126, 2
  %128 = sext i32 %127 to i64
  %129 = getelementptr inbounds [32 x i8], [32 x i8]* %125, i64 0, i64 %128
  %130 = load i8, i8* %129, align 1
  %131 = sext i8 %130 to i32
  %132 = icmp eq i32 %131, 110
  br i1 %132, label %133, label %166

133:                                              ; preds = %122
  %134 = load i32, i32* %3, align 4
  %135 = sext i32 %134 to i64
  %136 = getelementptr inbounds [32 x i8], [32 x i8]* %12, i64 %135
  %137 = load i32, i32* %5, align 4
  %138 = sub nsw i32 %137, 3
  %139 = sext i32 %138 to i64
  %140 = getelementptr inbounds [32 x i8], [32 x i8]* %136, i64 0, i64 %139
  %141 = load i8, i8* %140, align 1
  %142 = sext i8 %141 to i32
  %143 = icmp eq i32 %142, 105
  br i1 %143, label %144, label %166

144:                                              ; preds = %133
  %145 = load i32, i32* %3, align 4
  %146 = sext i32 %145 to i64
  %147 = getelementptr inbounds [32 x i8], [32 x i8]* %12, i64 %146
  %148 = load i32, i32* %5, align 4
  %149 = sub nsw i32 %148, 1
  %150 = sext i32 %149 to i64
  %151 = getelementptr inbounds [32 x i8], [32 x i8]* %147, i64 0, i64 %150
  store i8 0, i8* %151, align 1
  %152 = load i32, i32* %3, align 4
  %153 = sext i32 %152 to i64
  %154 = getelementptr inbounds [32 x i8], [32 x i8]* %12, i64 %153
  %155 = load i32, i32* %5, align 4
  %156 = sub nsw i32 %155, 2
  %157 = sext i32 %156 to i64
  %158 = getelementptr inbounds [32 x i8], [32 x i8]* %154, i64 0, i64 %157
  store i8 0, i8* %158, align 1
  %159 = load i32, i32* %3, align 4
  %160 = sext i32 %159 to i64
  %161 = getelementptr inbounds [32 x i8], [32 x i8]* %12, i64 %160
  %162 = load i32, i32* %5, align 4
  %163 = sub nsw i32 %162, 3
  %164 = sext i32 %163 to i64
  %165 = getelementptr inbounds [32 x i8], [32 x i8]* %161, i64 0, i64 %164
  store i8 0, i8* %165, align 1
  br label %166

166:                                              ; preds = %144, %133, %122, %111
  %167 = load i32, i32* %3, align 4
  %168 = sext i32 %167 to i64
  %169 = getelementptr inbounds [32 x i8], [32 x i8]* %12, i64 %168
  %170 = getelementptr inbounds [32 x i8], [32 x i8]* %169, i64 0, i64 0
  %171 = call i32 @puts(i8* %170)
  br label %172

172:                                              ; preds = %166
  %173 = load i32, i32* %3, align 4
  %174 = add nsw i32 %173, 1
  store i32 %174, i32* %3, align 4
  br label %27

175:                                              ; preds = %27
  store i32 0, i32* %1, align 4
  %176 = load i8*, i8** %6, align 8
  call void @llvm.stackrestore(i8* %176)
  %177 = load i32, i32* %1, align 4
  ret i32 %177
}

declare dso_local i32 @__isoc99_scanf(i8*, ...) #1

; Function Attrs: nounwind
declare i8* @llvm.stacksave() #2

; Function Attrs: nounwind readonly
declare dso_local i64 @strlen(i8*) #3

declare dso_local i32 @puts(i8*) #1

; Function Attrs: nounwind
declare void @llvm.stackrestore(i8*) #2


!llvm.module.flags = !{!0}
!llvm.ident = !{!1}

!0 = !{i32 1, !"wchar_size", i32 4}
!1 = !{!"clang version 10.0.0-4ubuntu1 "}
